target datalayout = "e-m:e-p270:32:32-p271:32:32-p272:64:64-i64:64-i128:128-f80:128-n8:16:32:64-S128"
target triple = "x86_64-pc-linux-gnu"

%struct.H5AC_proxy_entry_t = type { %struct.H5C_cache_entry_t, i64, ptr, i64, i64, i64 }
%struct.H5C_cache_entry_t = type { ptr, i64, i64, ptr, i8, ptr, i8, i8, i8, i8, i32, i8, i8, i8, i8, i8, i32, ptr, i32, i32, i32, i32, i32, i8, i8, ptr, ptr, ptr, ptr, ptr, ptr, i8, i32, i8, i64, ptr, i64, i64, i32, i8, i32, i32, i8, ptr, ptr, ptr }

@H5AC_init_g = external global i8, align 1
@H5_libterm_g = external global i8, align 1
@.str.1 = private unnamed_addr constant [109 x i8] c"generated/home/dtcxzyw/WorkSpace/Projects/compilers/llvm-opt-benchmark/bench/hdf5/hdf5/src/H5ACproxy_entry.c\00", align 1
@H5E_CACHE_g = external global i64, align 8
@H5E_BADVALUE_g = external global i64, align 8
@H5E_CANTCLEAN_g = external global i64, align 8
@.str.13 = private unnamed_addr constant [29 x i8] c"can't mark proxy entry clean\00", align 1
@H5E_CANTSERIALIZE_g = external global i64, align 8
@__func__.H5AC__proxy_entry_notify = private unnamed_addr constant [25 x i8] c"H5AC__proxy_entry_notify\00", align 1
@.str.22 = private unnamed_addr constant [42 x i8] c"invalid notify action from metadata cache\00", align 1
@H5E_CANTDIRTY_g = external global i64, align 8
@.str.23 = private unnamed_addr constant [29 x i8] c"can't mark proxy entry dirty\00", align 1
@H5E_CANTUNSERIALIZE_g = external global i64, align 8
@.str.24 = private unnamed_addr constant [36 x i8] c"can't mark proxy entry unserialized\00", align 1
@.str.25 = private unnamed_addr constant [34 x i8] c"can't mark proxy entry serialized\00", align 1
@.str.26 = private unnamed_addr constant [42 x i8] c"unknown notify action from metadata cache\00", align 1

; Function Attrs: nounwind uwtable
define internal i32 @H5AC__proxy_entry_notify(i32 noundef %0, ptr noundef %1) #0 {
  %3 = alloca i32, align 4
  %4 = alloca ptr, align 8
  %5 = alloca ptr, align 8
  %6 = alloca i32, align 4
  %7 = alloca i8, align 1
  store i32 %0, ptr %3, align 4, !tbaa !17
  store ptr %1, ptr %4, align 8, !tbaa !3
  call void @llvm.lifetime.start.p0(i64 8, ptr %5) #4
  %8 = load ptr, ptr %4, align 8, !tbaa !3
  store ptr %8, ptr %5, align 8, !tbaa !19
  call void @llvm.lifetime.start.p0(i64 4, ptr %6) #4
  store i32 0, ptr %6, align 4, !tbaa !17
  call void @llvm.lifetime.start.p0(i64 1, ptr %7) #4
  store i8 0, ptr %7, align 1, !tbaa !9
  %9 = load i8, ptr @H5AC_init_g, align 1, !tbaa !9, !range !11, !noundef !12
  %10 = trunc i8 %9 to i1
  br i1 %10, label %15, label %11

11:                                               ; preds = %2
  %12 = load i8, ptr @H5_libterm_g, align 1, !tbaa !9, !range !11, !noundef !12
  %13 = trunc i8 %12 to i1
  %14 = xor i1 %13, true
  br label %15

15:                                               ; preds = %11, %2
  %16 = phi i1 [ true, %2 ], [ %14, %11 ]
  %17 = xor i1 %16, true
  %18 = xor i1 %17, true
  %19 = zext i1 %18 to i32
  %20 = sext i32 %19 to i64
  %21 = call i64 @llvm.expect.i64(i64 %20, i64 1)
  %22 = icmp ne i64 %21, 0
  br i1 %22, label %23, label %223

23:                                               ; preds = %15
  %24 = load i32, ptr %3, align 4, !tbaa !17
  switch i32 %24, label %202 [
    i32 0, label %221
    i32 1, label %25
    i32 2, label %44
    i32 3, label %63
    i32 4, label %64
    i32 5, label %65
    i32 6, label %66
    i32 7, label %100
    i32 8, label %134
    i32 9, label %168
  ]

25:                                               ; preds = %23
  br label %26

26:                                               ; preds = %25
  br label %27

27:                                               ; preds = %26
  br label %28

28:                                               ; preds = %27
  %29 = load i64, ptr @H5E_CACHE_g, align 8, !tbaa !13
  %30 = load i64, ptr @H5E_BADVALUE_g, align 8, !tbaa !13
  %31 = call i32 (ptr, ptr, i32, i64, i64, ptr, ...) @H5E_printf_stack(ptr noundef @.str.1, ptr noundef @__func__.H5AC__proxy_entry_notify, i32 noundef 492, i64 noundef %29, i64 noundef %30, ptr noundef @.str.22)
  br label %32

32:                                               ; preds = %28
  br label %33

33:                                               ; preds = %32
  store i8 1, ptr %7, align 1, !tbaa !9
  %34 = load i8, ptr %7, align 1, !tbaa !9, !range !11, !noundef !12
  %35 = trunc i8 %34 to i1
  %36 = zext i1 %35 to i8
  store i8 %36, ptr %7, align 1, !tbaa !9
  br label %37

37:                                               ; preds = %33
  br label %38

38:                                               ; preds = %37
  br label %39

39:                                               ; preds = %38
  store i32 -1, ptr %6, align 4, !tbaa !17
  br label %222

40:                                               ; No predecessors!
  br label %41

41:                                               ; preds = %40
  br label %42

42:                                               ; preds = %41
  br label %43

43:                                               ; preds = %42
  br label %221

44:                                               ; preds = %23
  br label %45

45:                                               ; preds = %44
  br label %46

46:                                               ; preds = %45
  br label %47

47:                                               ; preds = %46
  %48 = load i64, ptr @H5E_CACHE_g, align 8, !tbaa !13
  %49 = load i64, ptr @H5E_BADVALUE_g, align 8, !tbaa !13
  %50 = call i32 (ptr, ptr, i32, i64, i64, ptr, ...) @H5E_printf_stack(ptr noundef @.str.1, ptr noundef @__func__.H5AC__proxy_entry_notify, i32 noundef 500, i64 noundef %48, i64 noundef %49, ptr noundef @.str.22)
  br label %51

51:                                               ; preds = %47
  br label %52

52:                                               ; preds = %51
  store i8 1, ptr %7, align 1, !tbaa !9
  %53 = load i8, ptr %7, align 1, !tbaa !9, !range !11, !noundef !12
  %54 = trunc i8 %53 to i1
  %55 = zext i1 %54 to i8
  store i8 %55, ptr %7, align 1, !tbaa !9
  br label %56

56:                                               ; preds = %52
  br label %57

57:                                               ; preds = %56
  br label %58

58:                                               ; preds = %57
  store i32 -1, ptr %6, align 4, !tbaa !17
  br label %222

59:                                               ; No predecessors!
  br label %60

60:                                               ; preds = %59
  br label %61

61:                                               ; preds = %60
  br label %62

62:                                               ; preds = %61
  br label %221

63:                                               ; preds = %23
  br label %221

64:                                               ; preds = %23
  br label %221

65:                                               ; preds = %23
  br label %221

66:                                               ; preds = %23
  %67 = load ptr, ptr %5, align 8, !tbaa !19
  %68 = getelementptr inbounds nuw %struct.H5AC_proxy_entry_t, ptr %67, i32 0, i32 4
  %69 = load i64, ptr %68, align 8, !tbaa !21
  %70 = add i64 %69, 1
  store i64 %70, ptr %68, align 8, !tbaa !21
  %71 = load ptr, ptr %5, align 8, !tbaa !19
  %72 = getelementptr inbounds nuw %struct.H5AC_proxy_entry_t, ptr %71, i32 0, i32 4
  %73 = load i64, ptr %72, align 8, !tbaa !21
  %74 = icmp eq i64 1, %73
  br i1 %74, label %75, label %99

75:                                               ; preds = %66
  %76 = load ptr, ptr %5, align 8, !tbaa !19
  %77 = call i32 @H5AC_mark_entry_dirty(ptr noundef %76)
  %78 = icmp slt i32 %77, 0
  br i1 %78, label %79, label %98

79:                                               ; preds = %75
  br label %80

80:                                               ; preds = %79
  br label %81

81:                                               ; preds = %80
  br label %82

82:                                               ; preds = %81
  %83 = load i64, ptr @H5E_CACHE_g, align 8, !tbaa !13
  %84 = load i64, ptr @H5E_CANTDIRTY_g, align 8, !tbaa !13
  %85 = call i32 (ptr, ptr, i32, i64, i64, ptr, ...) @H5E_printf_stack(ptr noundef @.str.1, ptr noundef @__func__.H5AC__proxy_entry_notify, i32 noundef 535, i64 noundef %83, i64 noundef %84, ptr noundef @.str.23)
  br label %86

86:                                               ; preds = %82
  br label %87

87:                                               ; preds = %86
  store i8 1, ptr %7, align 1, !tbaa !9
  %88 = load i8, ptr %7, align 1, !tbaa !9, !range !11, !noundef !12
  %89 = trunc i8 %88 to i1
  %90 = zext i1 %89 to i8
  store i8 %90, ptr %7, align 1, !tbaa !9
  br label %91

91:                                               ; preds = %87
  br label %92

92:                                               ; preds = %91
  br label %93

93:                                               ; preds = %92
  store i32 -1, ptr %6, align 4, !tbaa !17
  br label %222

94:                                               ; No predecessors!
  br label %95

95:                                               ; preds = %94
  br label %96

96:                                               ; preds = %95
  br label %97

97:                                               ; preds = %96
  br label %98

98:                                               ; preds = %97, %75
  br label %99

99:                                               ; preds = %98, %66
  br label %221

100:                                              ; preds = %23
  %101 = load ptr, ptr %5, align 8, !tbaa !19
  %102 = getelementptr inbounds nuw %struct.H5AC_proxy_entry_t, ptr %101, i32 0, i32 4
  %103 = load i64, ptr %102, align 8, !tbaa !21
  %104 = add i64 %103, -1
  store i64 %104, ptr %102, align 8, !tbaa !21
  %105 = load ptr, ptr %5, align 8, !tbaa !19
  %106 = getelementptr inbounds nuw %struct.H5AC_proxy_entry_t, ptr %105, i32 0, i32 4
  %107 = load i64, ptr %106, align 8, !tbaa !21
  %108 = icmp eq i64 0, %107
  br i1 %108, label %109, label %133

109:                                              ; preds = %100
  %110 = load ptr, ptr %5, align 8, !tbaa !19
  %111 = call i32 @H5AC_mark_entry_clean(ptr noundef %110)
  %112 = icmp slt i32 %111, 0
  br i1 %112, label %113, label %132

113:                                              ; preds = %109
  br label %114

114:                                              ; preds = %113
  br label %115

115:                                              ; preds = %114
  br label %116

116:                                              ; preds = %115
  %117 = load i64, ptr @H5E_CACHE_g, align 8, !tbaa !13
  %118 = load i64, ptr @H5E_CANTCLEAN_g, align 8, !tbaa !13
  %119 = call i32 (ptr, ptr, i32, i64, i64, ptr, ...) @H5E_printf_stack(ptr noundef @.str.1, ptr noundef @__func__.H5AC__proxy_entry_notify, i32 noundef 548, i64 noundef %117, i64 noundef %118, ptr noundef @.str.13)
  br label %120

120:                                              ; preds = %116
  br label %121

121:                                              ; preds = %120
  store i8 1, ptr %7, align 1, !tbaa !9
  %122 = load i8, ptr %7, align 1, !tbaa !9, !range !11, !noundef !12
  %123 = trunc i8 %122 to i1
  %124 = zext i1 %123 to i8
  store i8 %124, ptr %7, align 1, !tbaa !9
  br label %125

125:                                              ; preds = %121
  br label %126

126:                                              ; preds = %125
  br label %127

127:                                              ; preds = %126
  store i32 -1, ptr %6, align 4, !tbaa !17
  br label %222

128:                                              ; No predecessors!
  br label %129

129:                                              ; preds = %128
  br label %130

130:                                              ; preds = %129
  br label %131

131:                                              ; preds = %130
  br label %132

132:                                              ; preds = %131, %109
  br label %133

133:                                              ; preds = %132, %100
  br label %221

134:                                              ; preds = %23
  %135 = load ptr, ptr %5, align 8, !tbaa !19
  %136 = getelementptr inbounds nuw %struct.H5AC_proxy_entry_t, ptr %135, i32 0, i32 5
  %137 = load i64, ptr %136, align 8, !tbaa !30
  %138 = add i64 %137, 1
  store i64 %138, ptr %136, align 8, !tbaa !30
  %139 = load ptr, ptr %5, align 8, !tbaa !19
  %140 = getelementptr inbounds nuw %struct.H5AC_proxy_entry_t, ptr %139, i32 0, i32 5
  %141 = load i64, ptr %140, align 8, !tbaa !30
  %142 = icmp eq i64 1, %141
  br i1 %142, label %143, label %167

143:                                              ; preds = %134
  %144 = load ptr, ptr %5, align 8, !tbaa !19
  %145 = call i32 @H5AC_mark_entry_unserialized(ptr noundef %144)
  %146 = icmp slt i32 %145, 0
  br i1 %146, label %147, label %166

147:                                              ; preds = %143
  br label %148

148:                                              ; preds = %147
  br label %149

149:                                              ; preds = %148
  br label %150

150:                                              ; preds = %149
  %151 = load i64, ptr @H5E_CACHE_g, align 8, !tbaa !13
  %152 = load i64, ptr @H5E_CANTUNSERIALIZE_g, align 8, !tbaa !13
  %153 = call i32 (ptr, ptr, i32, i64, i64, ptr, ...) @H5E_printf_stack(ptr noundef @.str.1, ptr noundef @__func__.H5AC__proxy_entry_notify, i32 noundef 558, i64 noundef %151, i64 noundef %152, ptr noundef @.str.24)
  br label %154

154:                                              ; preds = %150
  br label %155

155:                                              ; preds = %154
  store i8 1, ptr %7, align 1, !tbaa !9
  %156 = load i8, ptr %7, align 1, !tbaa !9, !range !11, !noundef !12
  %157 = trunc i8 %156 to i1
  %158 = zext i1 %157 to i8
  store i8 %158, ptr %7, align 1, !tbaa !9
  br label %159

159:                                              ; preds = %155
  br label %160

160:                                              ; preds = %159
  br label %161

161:                                              ; preds = %160
  store i32 -1, ptr %6, align 4, !tbaa !17
  br label %222

162:                                              ; No predecessors!
  br label %163

163:                                              ; preds = %162
  br label %164

164:                                              ; preds = %163
  br label %165

165:                                              ; preds = %164
  br label %166

166:                                              ; preds = %165, %143
  br label %167

167:                                              ; preds = %166, %134
  br label %221

168:                                              ; preds = %23
  %169 = load ptr, ptr %5, align 8, !tbaa !19
  %170 = getelementptr inbounds nuw %struct.H5AC_proxy_entry_t, ptr %169, i32 0, i32 5
  %171 = load i64, ptr %170, align 8, !tbaa !30
  %172 = add i64 %171, -1
  store i64 %172, ptr %170, align 8, !tbaa !30
  %173 = load ptr, ptr %5, align 8, !tbaa !19
  %174 = getelementptr inbounds nuw %struct.H5AC_proxy_entry_t, ptr %173, i32 0, i32 5
  %175 = load i64, ptr %174, align 8, !tbaa !30
  %176 = icmp eq i64 0, %175
  br i1 %176, label %177, label %201

177:                                              ; preds = %168
  %178 = load ptr, ptr %5, align 8, !tbaa !19
  %179 = call i32 @H5AC_mark_entry_serialized(ptr noundef %178)
  %180 = icmp slt i32 %179, 0
  br i1 %180, label %181, label %200

181:                                              ; preds = %177
  br label %182

182:                                              ; preds = %181
  br label %183

183:                                              ; preds = %182
  br label %184

184:                                              ; preds = %183
  %185 = load i64, ptr @H5E_CACHE_g, align 8, !tbaa !13
  %186 = load i64, ptr @H5E_CANTSERIALIZE_g, align 8, !tbaa !13
  %187 = call i32 (ptr, ptr, i32, i64, i64, ptr, ...) @H5E_printf_stack(ptr noundef @.str.1, ptr noundef @__func__.H5AC__proxy_entry_notify, i32 noundef 571, i64 noundef %185, i64 noundef %186, ptr noundef @.str.25)
  br label %188

188:                                              ; preds = %184
  br label %189

189:                                              ; preds = %188
  store i8 1, ptr %7, align 1, !tbaa !9
  %190 = load i8, ptr %7, align 1, !tbaa !9, !range !11, !noundef !12
  %191 = trunc i8 %190 to i1
  %192 = zext i1 %191 to i8
  store i8 %192, ptr %7, align 1, !tbaa !9
  br label %193

193:                                              ; preds = %189
  br label %194

194:                                              ; preds = %193
  br label %195

195:                                              ; preds = %194
  store i32 -1, ptr %6, align 4, !tbaa !17
  br label %222

196:                                              ; No predecessors!
  br label %197

197:                                              ; preds = %196
  br label %198

198:                                              ; preds = %197
  br label %199

199:                                              ; preds = %198
  br label %200

200:                                              ; preds = %199, %177
  br label %201

201:                                              ; preds = %200, %168
  br label %221

202:                                              ; preds = %23
  br label %203

203:                                              ; preds = %202
  br label %204

204:                                              ; preds = %203
  br label %205

205:                                              ; preds = %204
  %206 = load i64, ptr @H5E_CACHE_g, align 8, !tbaa !13
  %207 = load i64, ptr @H5E_BADVALUE_g, align 8, !tbaa !13
  %208 = call i32 (ptr, ptr, i32, i64, i64, ptr, ...) @H5E_printf_stack(ptr noundef @.str.1, ptr noundef @__func__.H5AC__proxy_entry_notify, i32 noundef 576, i64 noundef %206, i64 noundef %207, ptr noundef @.str.26)
  br label %209

209:                                              ; preds = %205
  br label %210

210:                                              ; preds = %209
  store i8 1, ptr %7, align 1, !tbaa !9
  %211 = load i8, ptr %7, align 1, !tbaa !9, !range !11, !noundef !12
  %212 = trunc i8 %211 to i1
  %213 = zext i1 %212 to i8
  store i8 %213, ptr %7, align 1, !tbaa !9
  br label %214

214:                                              ; preds = %210
  br label %215

215:                                              ; preds = %214
  br label %216

216:                                              ; preds = %215
  store i32 -1, ptr %6, align 4, !tbaa !17
  br label %222

217:                                              ; No predecessors!
  br label %218

218:                                              ; preds = %217
  br label %219

219:                                              ; preds = %218
  br label %220

220:                                              ; preds = %219
  br label %221

221:                                              ; preds = %220, %201, %167, %133, %99, %65, %64, %63, %62, %43, %23
  br label %222

222:                                              ; preds = %221, %216, %195, %161, %127, %93, %58, %39
  br label %223

223:                                              ; preds = %222, %15
  %224 = load i32, ptr %6, align 4, !tbaa !17
  call void @llvm.lifetime.end.p0(i64 1, ptr %7) #4
  call void @llvm.lifetime.end.p0(i64 4, ptr %6) #4
  call void @llvm.lifetime.end.p0(i64 8, ptr %5) #4
  ret i32 %224
}