; Function Attrs: nounwind uwtable
define internal range(i32 -1, 1) i32 @H5AC__proxy_entry_notify(i32 noundef %0, ptr noundef %1) #1 {
  %3 = load i8, ptr @H5AC_init_g, align 1, !tbaa !3, !range !7, !noundef !8
  %4 = trunc nuw i8 %3 to i1
  %5 = load i8, ptr @H5_libterm_g, align 1, !range !7
  %6 = trunc nuw i8 %5 to i1
  %7 = xor i1 %6, true
  %8 = select i1 %4, i1 true, i1 %7
  br i1 %8, label %9, label %70, !prof !9

9:                                                ; preds = %2
  switch i32 %0, label %66 [
    i32 0, label %70
    i32 1, label %10
    i32 2, label %14
    i32 3, label %70
    i32 4, label %70
    i32 5, label %70
    i32 6, label %18
    i32 7, label %30
    i32 8, label %42
    i32 9, label %54
  ]

10:                                               ; preds = %9
  %11 = load i64, ptr @H5E_CACHE_g, align 8, !tbaa !10
  %12 = load i64, ptr @H5E_BADVALUE_g, align 8, !tbaa !10
  %13 = tail call i32 (ptr, ptr, i32, i64, i64, ptr, ...) @H5E_printf_stack(ptr noundef nonnull @.str.1, ptr noundef nonnull @__func__.H5AC__proxy_entry_notify, i32 noundef 492, i64 noundef %11, i64 noundef %12, ptr noundef nonnull @.str.22) #3
  br label %70

14:                                               ; preds = %9
  %15 = load i64, ptr @H5E_CACHE_g, align 8, !tbaa !10
  %16 = load i64, ptr @H5E_BADVALUE_g, align 8, !tbaa !10
  %17 = tail call i32 (ptr, ptr, i32, i64, i64, ptr, ...) @H5E_printf_stack(ptr noundef nonnull @.str.1, ptr noundef nonnull @__func__.H5AC__proxy_entry_notify, i32 noundef 500, i64 noundef %15, i64 noundef %16, ptr noundef nonnull @.str.22) #3
  br label %70

18:                                               ; preds = %9
  %19 = getelementptr inbounds nuw i8, ptr %1, i64 272
  %20 = load i64, ptr %19, align 8, !tbaa !12
  %21 = add i64 %20, 1
  store i64 %21, ptr %19, align 8, !tbaa !12
  %22 = icmp eq i64 %20, 0
  br i1 %22, label %23, label %70

23:                                               ; preds = %18
  %24 = tail call i32 @H5AC_mark_entry_dirty(ptr noundef nonnull %1) #3
  %25 = icmp slt i32 %24, 0
  br i1 %25, label %26, label %70

26:                                               ; preds = %23
  %27 = load i64, ptr @H5E_CACHE_g, align 8, !tbaa !10
  %28 = load i64, ptr @H5E_CANTDIRTY_g, align 8, !tbaa !10
  %29 = tail call i32 (ptr, ptr, i32, i64, i64, ptr, ...) @H5E_printf_stack(ptr noundef nonnull @.str.1, ptr noundef nonnull @__func__.H5AC__proxy_entry_notify, i32 noundef 535, i64 noundef %27, i64 noundef %28, ptr noundef nonnull @.str.23) #3
  br label %70

30:                                               ; preds = %9
  %31 = getelementptr inbounds nuw i8, ptr %1, i64 272
  %32 = load i64, ptr %31, align 8, !tbaa !12
  %33 = add i64 %32, -1
  store i64 %33, ptr %31, align 8, !tbaa !12
  %34 = icmp eq i64 %33, 0
  br i1 %34, label %35, label %70

35:                                               ; preds = %30
  %36 = tail call i32 @H5AC_mark_entry_clean(ptr noundef nonnull %1) #3
  %37 = icmp slt i32 %36, 0
  br i1 %37, label %38, label %70

38:                                               ; preds = %35
  %39 = load i64, ptr @H5E_CACHE_g, align 8, !tbaa !10
  %40 = load i64, ptr @H5E_CANTCLEAN_g, align 8, !tbaa !10
  %41 = tail call i32 (ptr, ptr, i32, i64, i64, ptr, ...) @H5E_printf_stack(ptr noundef nonnull @.str.1, ptr noundef nonnull @__func__.H5AC__proxy_entry_notify, i32 noundef 548, i64 noundef %39, i64 noundef %40, ptr noundef nonnull @.str.13) #3
  br label %70

42:                                               ; preds = %9
  %43 = getelementptr inbounds nuw i8, ptr %1, i64 280
  %44 = load i64, ptr %43, align 8, !tbaa !24
  %45 = add i64 %44, 1
  store i64 %45, ptr %43, align 8, !tbaa !24
  %46 = icmp eq i64 %44, 0
  br i1 %46, label %47, label %70

47:                                               ; preds = %42
  %48 = tail call i32 @H5AC_mark_entry_unserialized(ptr noundef nonnull %1) #3
  %49 = icmp slt i32 %48, 0
  br i1 %49, label %50, label %70

50:                                               ; preds = %47
  %51 = load i64, ptr @H5E_CACHE_g, align 8, !tbaa !10
  %52 = load i64, ptr @H5E_CANTUNSERIALIZE_g, align 8, !tbaa !10
  %53 = tail call i32 (ptr, ptr, i32, i64, i64, ptr, ...) @H5E_printf_stack(ptr noundef nonnull @.str.1, ptr noundef nonnull @__func__.H5AC__proxy_entry_notify, i32 noundef 558, i64 noundef %51, i64 noundef %52, ptr noundef nonnull @.str.24) #3
  br label %70

54:                                               ; preds = %9
  %55 = getelementptr inbounds nuw i8, ptr %1, i64 280
  %56 = load i64, ptr %55, align 8, !tbaa !24
  %57 = add i64 %56, -1
  store i64 %57, ptr %55, align 8, !tbaa !24
  %58 = icmp eq i64 %57, 0
  br i1 %58, label %59, label %70

59:                                               ; preds = %54
  %60 = tail call i32 @H5AC_mark_entry_serialized(ptr noundef nonnull %1) #3
  %61 = icmp slt i32 %60, 0
  br i1 %61, label %62, label %70

62:                                               ; preds = %59
  %63 = load i64, ptr @H5E_CACHE_g, align 8, !tbaa !10
  %64 = load i64, ptr @H5E_CANTSERIALIZE_g, align 8, !tbaa !10
  %65 = tail call i32 (ptr, ptr, i32, i64, i64, ptr, ...) @H5E_printf_stack(ptr noundef nonnull @.str.1, ptr noundef nonnull @__func__.H5AC__proxy_entry_notify, i32 noundef 571, i64 noundef %63, i64 noundef %64, ptr noundef nonnull @.str.25) #3
  br label %70

66:                                               ; preds = %9
  %67 = load i64, ptr @H5E_CACHE_g, align 8, !tbaa !10
  %68 = load i64, ptr @H5E_BADVALUE_g, align 8, !tbaa !10
  %69 = tail call i32 (ptr, ptr, i32, i64, i64, ptr, ...) @H5E_printf_stack(ptr noundef nonnull @.str.1, ptr noundef nonnull @__func__.H5AC__proxy_entry_notify, i32 noundef 576, i64 noundef %67, i64 noundef %68, ptr noundef nonnull @.str.26) #3
  br label %70

70:                                               ; preds = %10, %14, %26, %38, %50, %62, %66, %54, %59, %42, %47, %30, %35, %18, %23, %9, %9, %9, %9, %2
  %.0 = phi i32 [ -1, %66 ], [ -1, %62 ], [ 0, %59 ], [ 0, %54 ], [ -1, %50 ], [ 0, %47 ], [ 0, %42 ], [ -1, %38 ], [ 0, %35 ], [ 0, %30 ], [ -1, %26 ], [ 0, %23 ], [ 0, %18 ], [ -1, %14 ], [ -1, %10 ], [ 0, %9 ], [ 0, %9 ], [ 0, %9 ], [ 0, %9 ], [ 0, %2 ]
  ret i32 %.0
}